; Function Attrs: mustprogress nounwind uwtable
define hidden void @_ZN24WeakProcessorTimeTrackerD2Ev(ptr nocapture noundef nonnull readonly align 8 dereferenceable(24) %0) unnamed_addr #0 align 2 {
  %2 = load ptr, ptr %0, align 8
  %.not = icmp eq ptr %2, null
  br i1 %.not, label %13, label %3

3:                                                ; preds = %1
  %4 = tail call { i64, i64 } @_ZN29CompositeElapsedCounterSource3nowEv() #13
  %5 = extractvalue { i64, i64 } %4, 0
  %6 = extractvalue { i64, i64 } %4, 1
  %7 = load ptr, ptr %0, align 8
  %8 = getelementptr inbounds i8, ptr %0, i64 8
  %.sroa.01.0.copyload = load i64, ptr %8, align 8
  %.sroa.22.0..sroa_idx = getelementptr inbounds i8, ptr %0, i64 16
  %.sroa.22.0.copyload = load i64, ptr %.sroa.22.0..sroa_idx, align 8
  %9 = sub nsw i64 %5, %.sroa.01.0.copyload
  %10 = sub nsw i64 %6, %.sroa.22.0.copyload
  %11 = tail call noundef double @_ZN29CompositeElapsedCounterSource7secondsE7PairRepIllE(i64 %9, i64 %10) #13
  %12 = getelementptr inbounds i8, ptr %7, i64 8
  store double %11, ptr %12, align 8
  br label %13

13:                                               ; preds = %3, %1
  ret void
}